target datalayout = "e-m:e-p270:32:32-p271:32:32-p272:64:64-i64:64-i128:128-f80:128-n8:16:32:64-S128"
target triple = "x86_64-pc-linux-gnu"

%"class.std::__cxx11::basic_string" = type { %"struct.std::__cxx11::basic_string<char>::_Alloc_hider", i64, %union.anon }
%"struct.std::__cxx11::basic_string<char>::_Alloc_hider" = type { ptr }
%union.anon = type { i64, [8 x i8] }
%"struct.std::_Vector_base.41" = type { %"struct.std::_Vector_base<const Variable *, std::allocator<const Variable *>>::_Vector_impl" }
%"struct.std::_Vector_base<const Variable *, std::allocator<const Variable *>>::_Vector_impl" = type { %"struct.std::_Vector_base<const Variable *, std::allocator<const Variable *>>::_Vector_impl_data" }
%"struct.std::_Vector_base<const Variable *, std::allocator<const Variable *>>::_Vector_impl_data" = type { ptr, ptr, ptr }

@.str.11 = private unnamed_addr constant [35 x i8] c"printf(\22...checksum after hashing \00", align 1
@.str.12 = private unnamed_addr constant [5 x i8] c"[%d]\00", align 1
@.str.13 = private unnamed_addr constant [9 x i8] c" : %X\\n\22\00", align 1
@.str.14 = private unnamed_addr constant [3 x i8] c" ,\00", align 1
@.str.15 = private unnamed_addr constant [33 x i8] c", crc32_context ^ 0xFFFFFFFFUL);\00", align 1

; Function Attrs: mustprogress nounwind uwtable
define linkonce_odr dso_local noundef nonnull align 8 dereferenceable(8) ptr @_ZNKSt6vectorIPK8VariableSaIS2_EEixEm(ptr noundef nonnull align 8 dereferenceable(24) %0, i64 noundef %1) #5 comdat align 2 {
  %3 = alloca ptr, align 8
  %4 = alloca i64, align 8
  store ptr %0, ptr %3, align 8
  store i64 %1, ptr %4, align 8
  %5 = load ptr, ptr %3, align 8
  %6 = getelementptr inbounds %"struct.std::_Vector_base.41", ptr %5, i32 0, i32 0
  %7 = getelementptr inbounds %"struct.std::_Vector_base<const Variable *, std::allocator<const Variable *>>::_Vector_impl_data", ptr %6, i32 0, i32 0
  %8 = load ptr, ptr %7, align 8
  %9 = load i64, ptr %4, align 8
  %10 = getelementptr inbounds ptr, ptr %8, i64 %9
  ret ptr %10
}

; Function Attrs: mustprogress uwtable
define dso_local void @_ZNK13ArrayVariable28output_checksum_with_indicesERSoRKSt6vectorIPK8VariableSaIS4_EENSt7__cxx1112basic_stringIcSt11char_traitsIcESaIcEEE(ptr noundef nonnull align 8 dereferenceable(288) %0, ptr noundef nonnull align 8 dereferenceable(8) %1, ptr noundef nonnull align 8 dereferenceable(24) %2, ptr noundef %3) #4 align 2 personality ptr @__gxx_personality_v0 {
  %5 = alloca ptr, align 8
  %6 = alloca ptr, align 8
  %7 = alloca ptr, align 8
  %8 = alloca ptr, align 8
  %9 = alloca i64, align 8
  %10 = alloca %"class.std::__cxx11::basic_string", align 8
  %11 = alloca ptr, align 8
  %12 = alloca i32, align 4
  store ptr %0, ptr %5, align 8
  store ptr %1, ptr %6, align 8
  store ptr %2, ptr %7, align 8
  store ptr %3, ptr %8, align 8
  %13 = load ptr, ptr %5, align 8
  %14 = load ptr, ptr %6, align 8
  %15 = call noundef nonnull align 8 dereferenceable(8) ptr @_ZStlsISt11char_traitsIcEERSt13basic_ostreamIcT_ES5_PKc(ptr noundef nonnull align 8 dereferenceable(8) %14, ptr noundef @.str.11)
  %16 = load ptr, ptr %6, align 8
  %17 = load ptr, ptr %13, align 8
  %18 = getelementptr inbounds ptr, ptr %17, i64 6
  %19 = load ptr, ptr %18, align 8
  call void %19(ptr dead_on_unwind writable sret(%"class.std::__cxx11::basic_string") align 8 %10, ptr noundef nonnull align 8 dereferenceable(200) %13)
  %20 = invoke noundef nonnull align 8 dereferenceable(8) ptr @_ZStlsIcSt11char_traitsIcESaIcEERSt13basic_ostreamIT_T0_ES7_RKNSt7__cxx1112basic_stringIS4_S5_T1_EE(ptr noundef nonnull align 8 dereferenceable(8) %16, ptr noundef nonnull align 8 dereferenceable(32) %10)
          to label %21 unwind label %35

21:                                               ; preds = %4
  call void @_ZNSt7__cxx1112basic_stringIcSt11char_traitsIcESaIcEED1Ev(ptr noundef nonnull align 8 dereferenceable(32) %10) #3
  store i64 0, ptr %9, align 8
  br label %22

22:                                               ; preds = %32, %21
  %23 = load i64, ptr %9, align 8
  %24 = load ptr, ptr %13, align 8
  %25 = getelementptr inbounds ptr, ptr %24, i64 5
  %26 = load ptr, ptr %25, align 8
  %27 = call noundef i64 %26(ptr noundef nonnull align 8 dereferenceable(288) %13)
  %28 = icmp ult i64 %23, %27
  br i1 %28, label %29, label %39

29:                                               ; preds = %22
  %30 = load ptr, ptr %6, align 8
  %31 = call noundef nonnull align 8 dereferenceable(8) ptr @_ZStlsISt11char_traitsIcEERSt13basic_ostreamIcT_ES5_PKc(ptr noundef nonnull align 8 dereferenceable(8) %30, ptr noundef @.str.12)
  br label %32

32:                                               ; preds = %29
  %33 = load i64, ptr %9, align 8
  %34 = add i64 %33, 1
  store i64 %34, ptr %9, align 8
  br label %22, !llvm.loop !31

35:                                               ; preds = %4
  %36 = landingpad { ptr, i32 }
          cleanup
  %37 = extractvalue { ptr, i32 } %36, 0
  store ptr %37, ptr %11, align 8
  %38 = extractvalue { ptr, i32 } %36, 1
  store i32 %38, ptr %12, align 4
  call void @_ZNSt7__cxx1112basic_stringIcSt11char_traitsIcESaIcEED1Ev(ptr noundef nonnull align 8 dereferenceable(32) %10) #3
  br label %68

39:                                               ; preds = %22
  %40 = load ptr, ptr %6, align 8
  %41 = call noundef nonnull align 8 dereferenceable(8) ptr @_ZStlsIcSt11char_traitsIcESaIcEERSt13basic_ostreamIT_T0_ES7_RKNSt7__cxx1112basic_stringIS4_S5_T1_EE(ptr noundef nonnull align 8 dereferenceable(8) %40, ptr noundef nonnull align 8 dereferenceable(32) %3)
  %42 = load ptr, ptr %6, align 8
  %43 = call noundef nonnull align 8 dereferenceable(8) ptr @_ZStlsISt11char_traitsIcEERSt13basic_ostreamIcT_ES5_PKc(ptr noundef nonnull align 8 dereferenceable(8) %42, ptr noundef @.str.13)
  store i64 0, ptr %9, align 8
  br label %44

44:                                               ; preds = %62, %39
  %45 = load i64, ptr %9, align 8
  %46 = load ptr, ptr %13, align 8
  %47 = getelementptr inbounds ptr, ptr %46, i64 5
  %48 = load ptr, ptr %47, align 8
  %49 = call noundef i64 %48(ptr noundef nonnull align 8 dereferenceable(288) %13)
  %50 = icmp ult i64 %45, %49
  br i1 %50, label %51, label %65

51:                                               ; preds = %44
  %52 = load ptr, ptr %6, align 8
  %53 = call noundef nonnull align 8 dereferenceable(8) ptr @_ZStlsISt11char_traitsIcEERSt13basic_ostreamIcT_ES5_PKc(ptr noundef nonnull align 8 dereferenceable(8) %52, ptr noundef @.str.14)
  %54 = load ptr, ptr %7, align 8
  %55 = load i64, ptr %9, align 8
  %56 = call noundef nonnull align 8 dereferenceable(8) ptr @_ZNKSt6vectorIPK8VariableSaIS2_EEixEm(ptr noundef nonnull align 8 dereferenceable(24) %54, i64 noundef %55) #3
  %57 = load ptr, ptr %56, align 8
  %58 = load ptr, ptr %6, align 8
  %59 = load ptr, ptr %57, align 8
  %60 = getelementptr inbounds ptr, ptr %59, i64 11
  %61 = load ptr, ptr %60, align 8
  call void %61(ptr noundef nonnull align 8 dereferenceable(200) %57, ptr noundef nonnull align 8 dereferenceable(8) %58)
  br label %62

62:                                               ; preds = %51
  %63 = load i64, ptr %9, align 8
  %64 = add i64 %63, 1
  store i64 %64, ptr %9, align 8
  br label %44, !llvm.loop !32

65:                                               ; preds = %44
  %66 = load ptr, ptr %6, align 8
  %67 = call noundef nonnull align 8 dereferenceable(8) ptr @_ZStlsISt11char_traitsIcEERSt13basic_ostreamIcT_ES5_PKc(ptr noundef nonnull align 8 dereferenceable(8) %66, ptr noundef @.str.15)
  ret void

68:                                               ; preds = %35
  %69 = load ptr, ptr %11, align 8
  %70 = load i32, ptr %12, align 4
  %71 = insertvalue { ptr, i32 } poison, ptr %69, 0
  %72 = insertvalue { ptr, i32 } %71, i32 %70, 1
  resume { ptr, i32 } %72
}